; Function Attrs: nounwind sspstrong uwtable
define internal fastcc void @ractor_sched_barrier_join_signal_locked(ptr noundef %0) unnamed_addr #0 {
  %2 = getelementptr i8, ptr %0, i64 272
  %.val = load i32, ptr %2, align 8, !tbaa !122
  %3 = getelementptr i8, ptr %0, i64 460
  %.val2 = load i32, ptr %3, align 4, !tbaa !123
  %4 = sub i32 %.val, %.val2
  %5 = icmp eq i32 %4, 1
  br i1 %5, label %6, label %rb_native_cond_signal.exit

6:                                                ; preds = %1
  %7 = getelementptr inbounds nuw i8, ptr %0, i64 360
  br label %8

8:                                                ; preds = %8, %6
  %9 = tail call i32 @pthread_cond_signal(ptr noundef nonnull %7) #17
  switch i32 %9, label %10 [
    i32 11, label %8
    i32 0, label %rb_native_cond_signal.exit
  ]

10:                                               ; preds = %8
  tail call void @rb_bug_errno(ptr noundef nonnull @.str.12, i32 noundef %9) #38
  unreachable

rb_native_cond_signal.exit:                       ; preds = %8, %1
  ret void
}